-----BEGIN DSA PRIVATE KEY-----
Proc-Type: 4,ENCRYPTED
DEK-Info: DES-EDE3-CBC,358BC2A46B590D0A

2Yr3MTkwUdeG92EumaRVtTat+ph4UggBTsJU57ItyYPz9SiYtcG/995FeZjcXVsz
PCgAcauwP2c/NKNyVPnhsN88DP1Zt8mr7Y4fQy99QRfGr1Blsubj06bKx+qFYQIP
1518yIdkp0g/PbfeWwmwb6Mp27BwSgcGwkL0j6XKtZhskfo2ftkhY01CPz+yZXdy
kpmKA76yYHnnAeAitUrmbFv0eTO325DwBJ4HsyJbv/DxH5N5Qy/IBWTvrcyCg5oG
Wt0M1dAg9q1QGHf49Z3SCNOoCTLK1FG1znQCW3eKIrHv2/Pa+2QtB4199khEPjjM
SPI64vwp+wIkBAauwkIOhs6INO5atHEPRcNI1R6KiLgQIeaeqgaxJcmQFYp/abK5
1UJ27REkMigESorIYJd1EqRyWombMXMafpZLIgFocbiyXEog/20ozTu09IvMhiUp
dbf4y19kvtMVYix7RJNj0kN9BeU0Mkcr3mrB5Q7f99adhDFHvPpp/uiOl4yM4Dk1
2LECdDgw5FNbpvoAKJisLrHZAuy+XUBd7vGRvYz/bcsX/W+TQLmsn+ct/DIr707X
mLDOMxDp+C3sTfaJjIP5Vg==
-----END DSA PRIVATE KEY-----
issuer :/C=US/ST=California/O=Claymore Systems, Inc./CN=Test CA
subject:/C=US/ST=California/O=Claymore Systems, Inc./CN=Test Client
serial :05

Certificate:
    Data:
        Version: 1 (0x0)
        Serial Number: 5 (0x5)
        Signature Algorithm: dsaWithSHA1
        Issuer: C=US, ST=California, O=Claymore Systems, Inc., CN=Test CA
        Validity
            Not Before: Jun 22 18:08:11 1999 GMT
            Not After : Jun 21 18:08:11 2000 GMT
        Subject: C=US, ST=California, O=Claymore Systems, Inc., CN=Test Client
        Subject Public Key Info:
            Public Key Algorithm: dsaEncryption
            DSA Public Key:
                pub: 
                    1f:a5:60:52:db:c0:e5:82:40:9e:f0:cf:17:42:36:
                    39:68:29:4a:6f:21:8a:b3:13:15:e2:b1:65:cc:fc:
                    20:9f:8f:14:bf:5f:67:0d:b3:b8:e1:37:ae:d9:73:
                    80:1f:26:99:6f:22:67:c3:b7:b0:0d:88:58:65:ad:
                    14:cf:43:64:53:72:3f:5f:d0:1e:0d:24:fd:a3:68:
                    54:bd:e6:41:80:80:26:9f:bf:28:23:7e:dc:16:2a:
                    a0:bd:3a:b2:d3:44:92:ed:1b:1d:e6:5e:22:d6:cb:
                    96:98:3d:b1:06:d1:79:1a:ca:b8:5a:9e:7c:37:00:
                    8c:37:51:b1:f4:8b:15:ff
                P:   
                    00:c8:9b:bd:b8:75:a1:44:9a:a2:60:d2:61:51:35:
                    60:0e:92:71:47:a9:8e:9f:2b:74:cd:2e:8f:2f:62:
                    76:ee:f7:2c:d9:fe:00:e2:f9:2a:2d:7a:5f:a8:c6:
                    74:21:2e:25:ae:5c:db:1b:dc:40:4c:e1:cc:78:74:
                    8b:20:04:bc:c6:b7:3a:71:6d:a9:54:6f:da:85:88:
                    c9:84:8e:c0:08:06:0a:e5:0a:2e:37:92:ec:d7:1a:
                    55:85:e5:d9:da:5e:de:4d:d8:22:32:e7:df:09:be:
                    63:ff:23:ab:55:71:2a:36:40:37:9d:f4:01:4c:09:
                    46:9e:ae:b3:1a:c0:0e:b7:a3
                Q:   
                    00:90:cc:0f:f7:61:8a:3e:75:74:7d:69:66:48:3b:
                    7d:8d:fd:0d:16:8b
                G:   
                    58:41:15:d7:2a:14:40:4f:48:44:9d:67:c2:65:ea:
                    ba:8b:e9:ec:dd:38:0b:58:c0:af:d9:5c:8f:44:37:
                    89:75:76:82:52:05:aa:ef:37:4c:db:94:9b:33:0f:
                    79:51:3a:48:91:1b:df:52:22:da:13:73:20:c9:e3:
                    c4:87:8b:b7:db:d4:56:58:4b:6a:a9:1c:cd:f5:7b:
                    86:eb:f4:46:9a:33:55:0a:fa:27:96:8b:c4:8e:16:
                    d1:cf:ad:e1:d0:47:10:09:b5:de:d6:74:be:66:72:
                    f8:64:28:c9:39:9c:dd:d1:59:6e:96:71:d3:39:7e:
                    e4:4a:12:6f:0a:63:95:15
    Signature Algorithm: dsaWithSHA1
        30:2c:02:14:14:e3:5c:86:78:37:29:f4:b7:3a:cc:25:69:29:
        42:7c:22:a1:75:e5:02:14:22:eb:b3:90:66:ae:c6:2e:32:a2:
        8f:4a:8a:58:6a:44:95:fd:75:03

-----BEGIN CERTIFICATE-----
MIIC3jCCApwCAQUwCwYHKoZIzjgEAwUAMFUxCzAJBgNVBAYTAlVTMRMwEQYDVQQI
EwpDYWxpZm9ybmlhMR8wHQYDVQQKExZDbGF5bW9yZSBTeXN0ZW1zLCBJbmMuMRAw
DgYDVQQDEwdUZXN0IENBMB4XDTk5MDYyMjE4MDgxMVoXDTAwMDYyMTE4MDgxMVow
WTELMAkGA1UEBhMCVVMxEzARBgNVBAgTCkNhbGlmb3JuaWExHzAdBgNVBAoTFkNs
YXltb3JlIFN5c3RlbXMsIEluYy4xFDASBgNVBAMTC1Rlc3QgQ2xpZW50MIIBtjCC
ASsGByqGSM44BAEwggEeAoGBAMibvbh1oUSaomDSYVE1YA6ScUepjp8rdM0ujy9i
du73LNn+AOL5Ki16X6jGdCEuJa5c2xvcQEzhzHh0iyAEvMa3OnFtqVRv2oWIyYSO
wAgGCuUKLjeS7NcaVYXl2dpe3k3YIjLn3wm+Y/8jq1VxKjZAN530AUwJRp6usxrA
DrejAhUAkMwP92GKPnV0fWlmSDt9jf0NFosCgYBYQRXXKhRAT0hEnWfCZeq6i+ns
3TgLWMCv2VyPRDeJdXaCUgWq7zdM25SbMw95UTpIkRvfUiLaE3MgyePEh4u329RW
WEtqqRzN9XuG6/RGmjNVCvonlovEjhbRz63h0EcQCbXe1nS+ZnL4ZCjJOZzd0Vlu
lnHTOX7kShJvCmOVFQOBhAACgYAfpWBS28DlgkCe8M8XQjY5aClKbyGKsxMV4rFl
zPwgn48Uv19nDbO44Teu2XOAHyaZbyJnw7ewDYhYZa0Uz0NkU3I/X9AeDST9o2hU
veZBgIAmn78oI37cFiqgvTqy00SS7Rsd5l4i1suWmD2xBtF5Gsq4Wp58NwCMN1Gx
9IsV/zALBgcqhkjOOAQDBQADLwAwLAIUFONchng3KfS3OswlaSlCfCKhdeUCFCLr
s5BmrsYuMqKPSopYakSV/XUD
-----END CERTIFICATE-----

