-----BEGIN DSA PRIVATE KEY-----
Proc-Type: 4,ENCRYPTED
DEK-Info: DES-EDE3-CBC,DBB5DA6E75D409A6

hAQoGHx8E1Nx9scXgEfOtMRtULFsK5ek7j6T5OfGzG/2Jz/vC8Fcv04bPC0vSUEn
YUXN6m7A9so86uqABh1QUbiRKH1WkQMwp8b6xBwqhEIy1DSFGapViL13jdHdAneF
Ir2pESd17tCpPv5l/fnGCRHy9wy0FDSlpdWq/3/kEvwRPbIYa3wsCxxbkz7rGhke
KyipJZctD9qCkpXWoDP2IWXIxl7qQP2K+k4GgF3BGNlMGBTQErV6B2Rp+YV7XRE3
Eow5i8LcxREg7xLixZneuh4i7rD7v5gC5lyLt+7R9zXJ6I12nh6GNW1acmqz6d/r
rLp9ctvdCIWsXqAlFgXkIN8+THG71JDb5aliXwQ75IDqmvAon0XXOifEbPTYenLs
rCA+CTzM+3QcuE4ATF/lST49AcoY7/LQMxdU5j4StvQi/2x0L7FAB4sgcQDTQU7T
LrbAjZtIczna+X2BvjbgzO2zVJ6VkrotBAuwJ7Wa2ZLQpSFlgvIZddo1sz8A0+Sp
nZcsNGebql/jZ0baRFZw2wX54Wf+113THliInKyCJ7ItL3xApBWITbW1N9j4oAd8
UOHc81omX5XyJj/N3dYdkg==
-----END DSA PRIVATE KEY-----
issuer :/C=US/ST=California/O=Claymore Systems, Inc./CN=Test CA
subject:/C=US/ST=California/O=Claymore Systems, Inc./CN=Test Server
serial :06

Certificate:
    Data:
        Version: 1 (0x0)
        Serial Number: 6 (0x6)
        Signature Algorithm: dsaWithSHA1
        Issuer: C=US, ST=California, O=Claymore Systems, Inc., CN=Test CA
        Validity
            Not Before: Jun 22 18:08:24 1999 GMT
            Not After : Jun 21 18:08:24 2000 GMT
        Subject: C=US, ST=California, O=Claymore Systems, Inc., CN=Test Server
        Subject Public Key Info:
            Public Key Algorithm: dsaEncryption
            DSA Public Key:
                pub: 
                    66:42:24:e9:92:a8:d6:79:1d:9f:2b:9c:de:9f:88:
                    f3:0f:1b:fb:aa:b5:19:85:02:7c:19:57:39:dc:53:
                    96:e4:c4:9b:cc:86:a6:cf:cc:f9:fe:72:c0:be:d8:
                    a6:cd:65:f8:f4:fd:4d:cf:43:c9:c4:0f:af:e6:e3:
                    ff:7b:4a:1f:c2:e0:c0:95:52:90:17:f2:dc:7c:72:
                    c0:53:c9:81:57:0e:a4:9d:66:65:44:22:01:0a:0a:
                    72:d7:0c:f7:97:2f:95:48:72:ed:5e:0c:8a:15:ca:
                    63:0c:88:63:9a:8d:74:24:2b:7f:52:2b:0b:3f:f2:
                    02:f4:cd:66:32:f7:01:8d
                P:   
                    00:c8:9b:bd:b8:75:a1:44:9a:a2:60:d2:61:51:35:
                    60:0e:92:71:47:a9:8e:9f:2b:74:cd:2e:8f:2f:62:
                    76:ee:f7:2c:d9:fe:00:e2:f9:2a:2d:7a:5f:a8:c6:
                    74:21:2e:25:ae:5c:db:1b:dc:40:4c:e1:cc:78:74:
                    8b:20:04:bc:c6:b7:3a:71:6d:a9:54:6f:da:85:88:
                    c9:84:8e:c0:08:06:0a:e5:0a:2e:37:92:ec:d7:1a:
                    55:85:e5:d9:da:5e:de:4d:d8:22:32:e7:df:09:be:
                    63:ff:23:ab:55:71:2a:36:40:37:9d:f4:01:4c:09:
                    46:9e:ae:b3:1a:c0:0e:b7:a3
                Q:   
                    00:90:cc:0f:f7:61:8a:3e:75:74:7d:69:66:48:3b:
                    7d:8d:fd:0d:16:8b
                G:   
                    58:41:15:d7:2a:14:40:4f:48:44:9d:67:c2:65:ea:
                    ba:8b:e9:ec:dd:38:0b:58:c0:af:d9:5c:8f:44:37:
                    89:75:76:82:52:05:aa:ef:37:4c:db:94:9b:33:0f:
                    79:51:3a:48:91:1b:df:52:22:da:13:73:20:c9:e3:
                    c4:87:8b:b7:db:d4:56:58:4b:6a:a9:1c:cd:f5:7b:
                    86:eb:f4:46:9a:33:55:0a:fa:27:96:8b:c4:8e:16:
                    d1:cf:ad:e1:d0:47:10:09:b5:de:d6:74:be:66:72:
                    f8:64:28:c9:39:9c:dd:d1:59:6e:96:71:d3:39:7e:
                    e4:4a:12:6f:0a:63:95:15
    Signature Algorithm: dsaWithSHA1
        30:2c:02:14:67:f0:25:e1:0e:9e:5b:16:2c:40:13:fc:ea:5a:
        b4:a6:6e:3e:4b:08:02:14:10:67:5a:78:4a:88:9d:0a:b8:0d:
        e0:30:15:a7:a5:f9:86:54:fa:62

-----BEGIN CERTIFICATE-----
MIIC3jCCApwCAQYwCwYHKoZIzjgEAwUAMFUxCzAJBgNVBAYTAlVTMRMwEQYDVQQI
EwpDYWxpZm9ybmlhMR8wHQYDVQQKExZDbGF5bW9yZSBTeXN0ZW1zLCBJbmMuMRAw
DgYDVQQDEwdUZXN0IENBMB4XDTk5MDYyMjE4MDgyNFoXDTAwMDYyMTE4MDgyNFow
WTELMAkGA1UEBhMCVVMxEzARBgNVBAgTCkNhbGlmb3JuaWExHzAdBgNVBAoTFkNs
YXltb3JlIFN5c3RlbXMsIEluYy4xFDASBgNVBAMTC1Rlc3QgU2VydmVyMIIBtjCC
ASsGByqGSM44BAEwggEeAoGBAMibvbh1oUSaomDSYVE1YA6ScUepjp8rdM0ujy9i
du73LNn+AOL5Ki16X6jGdCEuJa5c2xvcQEzhzHh0iyAEvMa3OnFtqVRv2oWIyYSO
wAgGCuUKLjeS7NcaVYXl2dpe3k3YIjLn3wm+Y/8jq1VxKjZAN530AUwJRp6usxrA
DrejAhUAkMwP92GKPnV0fWlmSDt9jf0NFosCgYBYQRXXKhRAT0hEnWfCZeq6i+ns
3TgLWMCv2VyPRDeJdXaCUgWq7zdM25SbMw95UTpIkRvfUiLaE3MgyePEh4u329RW
WEtqqRzN9XuG6/RGmjNVCvonlovEjhbRz63h0EcQCbXe1nS+ZnL4ZCjJOZzd0Vlu
lnHTOX7kShJvCmOVFQOBhAACgYBmQiTpkqjWeR2fK5zen4jzDxv7qrUZhQJ8GVc5
3FOW5MSbzIamz8z5/nLAvtimzWX49P1Nz0PJxA+v5uP/e0ofwuDAlVKQF/LcfHLA
U8mBVw6knWZlRCIBCgpy1wz3ly+VSHLtXgyKFcpjDIhjmo10JCt/UisLP/IC9M1m
MvcBjTALBgcqhkjOOAQDBQADLwAwLAIUZ/Al4Q6eWxYsQBP86lq0pm4+SwgCFBBn
WnhKiJ0KuA3gMBWnpfmGVPpi
-----END CERTIFICATE-----

